target datalayout = "e-m:e-p270:32:32-p271:32:32-p272:64:64-i64:64-i128:128-f80:128-n8:16:32:64-S128"
target triple = "x86_64-pc-linux-gnu"

%struct.PyVarObject = type { %struct._object, i64 }
%struct._object = type { %union.anon, ptr }
%union.anon = type { i64 }
%struct.PyTupleObject = type { %struct.PyVarObject, [1 x ptr] }
%struct.Py_buffer = type { ptr, ptr, i64, i64, i32, i32, ptr, ptr, ptr, ptr, ptr }

@PyExc_TypeError = external global ptr, align 8
@PyExc_IndexError = external global ptr, align 8
@.str.20 = private unnamed_addr constant [36 x i8] c"index out of bounds on dimension %d\00", align 1
@.str.24 = private unnamed_addr constant [55 x i8] c"cannot index %zd-dimension view with %zd-element tuple\00", align 1

; Function Attrs: inlinehint nounwind uwtable
define internal i64 @Py_SIZE(ptr noundef %0) #3 {
  %2 = alloca ptr, align 8
  store ptr %0, ptr %2, align 8, !tbaa !4
  %3 = load ptr, ptr %2, align 8, !tbaa !4
  %4 = getelementptr inbounds nuw %struct.PyVarObject, ptr %3, i32 0, i32 1
  %5 = load i64, ptr %4, align 8, !tbaa !183
  ret i64 %5
}

; Function Attrs: nounwind uwtable
define internal ptr @lookup_dimension(ptr noundef %0, ptr noundef %1, i32 noundef %2, i64 noundef %3) #0 {
  %5 = alloca ptr, align 8
  %6 = alloca ptr, align 8
  %7 = alloca ptr, align 8
  %8 = alloca i32, align 4
  %9 = alloca i64, align 8
  %10 = alloca i64, align 8
  %11 = alloca i32, align 4
  store ptr %0, ptr %6, align 8, !tbaa !9
  store ptr %1, ptr %7, align 8, !tbaa !22
  store i32 %2, ptr %8, align 4, !tbaa !21
  store i64 %3, ptr %9, align 8, !tbaa !23
  call void @llvm.lifetime.start.p0(i64 8, ptr %10) #9
  %12 = load ptr, ptr %6, align 8, !tbaa !9
  %13 = getelementptr inbounds nuw %struct.Py_buffer, ptr %12, i32 0, i32 7
  %14 = load ptr, ptr %13, align 8, !tbaa !44
  %15 = load i32, ptr %8, align 4, !tbaa !21
  %16 = sext i32 %15 to i64
  %17 = getelementptr i64, ptr %14, i64 %16
  %18 = load i64, ptr %17, align 8, !tbaa !23
  store i64 %18, ptr %10, align 8, !tbaa !23
  %19 = load i64, ptr %9, align 8, !tbaa !23
  %20 = icmp slt i64 %19, 0
  br i1 %20, label %21, label %25

21:                                               ; preds = %4
  %22 = load i64, ptr %10, align 8, !tbaa !23
  %23 = load i64, ptr %9, align 8, !tbaa !23
  %24 = add i64 %23, %22
  store i64 %24, ptr %9, align 8, !tbaa !23
  br label %25

25:                                               ; preds = %21, %4
  %26 = load i64, ptr %9, align 8, !tbaa !23
  %27 = icmp slt i64 %26, 0
  br i1 %27, label %32, label %28

28:                                               ; preds = %25
  %29 = load i64, ptr %9, align 8, !tbaa !23
  %30 = load i64, ptr %10, align 8, !tbaa !23
  %31 = icmp sge i64 %29, %30
  br i1 %31, label %32, label %37

32:                                               ; preds = %28, %25
  %33 = load ptr, ptr @PyExc_IndexError, align 8, !tbaa !4
  %34 = load i32, ptr %8, align 4, !tbaa !21
  %35 = add i32 %34, 1
  %36 = call ptr (ptr, ptr, ...) @PyErr_Format(ptr noundef %33, ptr noundef @.str.20, i32 noundef %35)
  store ptr null, ptr %5, align 8
  store i32 1, ptr %11, align 4
  br label %78

37:                                               ; preds = %28
  %38 = load ptr, ptr %6, align 8, !tbaa !9
  %39 = getelementptr inbounds nuw %struct.Py_buffer, ptr %38, i32 0, i32 8
  %40 = load ptr, ptr %39, align 8, !tbaa !55
  %41 = load i32, ptr %8, align 4, !tbaa !21
  %42 = sext i32 %41 to i64
  %43 = getelementptr i64, ptr %40, i64 %42
  %44 = load i64, ptr %43, align 8, !tbaa !23
  %45 = load i64, ptr %9, align 8, !tbaa !23
  %46 = mul i64 %44, %45
  %47 = load ptr, ptr %7, align 8, !tbaa !22
  %48 = getelementptr i8, ptr %47, i64 %46
  store ptr %48, ptr %7, align 8, !tbaa !22
  %49 = load ptr, ptr %6, align 8, !tbaa !9
  %50 = getelementptr inbounds nuw %struct.Py_buffer, ptr %49, i32 0, i32 9
  %51 = load ptr, ptr %50, align 8, !tbaa !47
  %52 = icmp ne ptr %51, null
  br i1 %52, label %53, label %73

53:                                               ; preds = %37
  %54 = load ptr, ptr %6, align 8, !tbaa !9
  %55 = getelementptr inbounds nuw %struct.Py_buffer, ptr %54, i32 0, i32 9
  %56 = load ptr, ptr %55, align 8, !tbaa !47
  %57 = load i32, ptr %8, align 4, !tbaa !21
  %58 = sext i32 %57 to i64
  %59 = getelementptr i64, ptr %56, i64 %58
  %60 = load i64, ptr %59, align 8, !tbaa !23
  %61 = icmp sge i64 %60, 0
  br i1 %61, label %62, label %73

62:                                               ; preds = %53
  %63 = load ptr, ptr %7, align 8, !tbaa !22
  %64 = load ptr, ptr %63, align 8, !tbaa !22
  %65 = load ptr, ptr %6, align 8, !tbaa !9
  %66 = getelementptr inbounds nuw %struct.Py_buffer, ptr %65, i32 0, i32 9
  %67 = load ptr, ptr %66, align 8, !tbaa !47
  %68 = load i32, ptr %8, align 4, !tbaa !21
  %69 = sext i32 %68 to i64
  %70 = getelementptr i64, ptr %67, i64 %69
  %71 = load i64, ptr %70, align 8, !tbaa !23
  %72 = getelementptr i8, ptr %64, i64 %71
  br label %75

73:                                               ; preds = %53, %37
  %74 = load ptr, ptr %7, align 8, !tbaa !22
  br label %75

75:                                               ; preds = %73, %62
  %76 = phi ptr [ %72, %62 ], [ %74, %73 ]
  store ptr %76, ptr %7, align 8, !tbaa !22
  %77 = load ptr, ptr %7, align 8, !tbaa !22
  store ptr %77, ptr %5, align 8
  store i32 1, ptr %11, align 4
  br label %78

78:                                               ; preds = %75, %32
  call void @llvm.lifetime.end.p0(i64 8, ptr %10) #9
  %79 = load ptr, ptr %5, align 8
  ret ptr %79
}

; Function Attrs: inlinehint nounwind uwtable
define internal i64 @PyTuple_GET_SIZE(ptr noundef %0) #3 {
  %2 = alloca ptr, align 8
  %3 = alloca ptr, align 8
  store ptr %0, ptr %2, align 8, !tbaa !4
  call void @llvm.lifetime.start.p0(i64 8, ptr %3) #9
  %4 = load ptr, ptr %2, align 8, !tbaa !4
  store ptr %4, ptr %3, align 8, !tbaa !9
  %5 = load ptr, ptr %3, align 8, !tbaa !9
  %6 = call i64 @Py_SIZE(ptr noundef %5)
  call void @llvm.lifetime.end.p0(i64 8, ptr %3) #9
  ret i64 %6
}

; Function Attrs: nounwind uwtable
define internal ptr @ptr_from_tuple(ptr noundef %0, ptr noundef %1) #0 {
  %3 = alloca ptr, align 8
  %4 = alloca ptr, align 8
  %5 = alloca ptr, align 8
  %6 = alloca ptr, align 8
  %7 = alloca i64, align 8
  %8 = alloca i64, align 8
  %9 = alloca i32, align 4
  %10 = alloca i64, align 8
  store ptr %0, ptr %4, align 8, !tbaa !9
  store ptr %1, ptr %5, align 8, !tbaa !4
  call void @llvm.lifetime.start.p0(i64 8, ptr %6) #9
  %11 = load ptr, ptr %4, align 8, !tbaa !9
  %12 = getelementptr inbounds nuw %struct.Py_buffer, ptr %11, i32 0, i32 0
  %13 = load ptr, ptr %12, align 8, !tbaa !30
  store ptr %13, ptr %6, align 8, !tbaa !22
  call void @llvm.lifetime.start.p0(i64 8, ptr %7) #9
  call void @llvm.lifetime.start.p0(i64 8, ptr %8) #9
  %14 = load ptr, ptr %5, align 8, !tbaa !4
  %15 = call i64 @PyTuple_GET_SIZE(ptr noundef %14)
  store i64 %15, ptr %8, align 8, !tbaa !23
  %16 = load i64, ptr %8, align 8, !tbaa !23
  %17 = load ptr, ptr %4, align 8, !tbaa !9
  %18 = getelementptr inbounds nuw %struct.Py_buffer, ptr %17, i32 0, i32 5
  %19 = load i32, ptr %18, align 4, !tbaa !25
  %20 = sext i32 %19 to i64
  %21 = icmp sgt i64 %16, %20
  br i1 %21, label %22, label %29

22:                                               ; preds = %2
  %23 = load ptr, ptr @PyExc_TypeError, align 8, !tbaa !4
  %24 = load ptr, ptr %4, align 8, !tbaa !9
  %25 = getelementptr inbounds nuw %struct.Py_buffer, ptr %24, i32 0, i32 5
  %26 = load i32, ptr %25, align 4, !tbaa !25
  %27 = load i64, ptr %8, align 8, !tbaa !23
  %28 = call ptr (ptr, ptr, ...) @PyErr_Format(ptr noundef %23, ptr noundef @.str.24, i32 noundef %26, i64 noundef %27)
  store ptr null, ptr %3, align 8
  store i32 1, ptr %9, align 4
  br label %67

29:                                               ; preds = %2
  store i64 0, ptr %7, align 8, !tbaa !23
  br label %30

30:                                               ; preds = %62, %29
  %31 = load i64, ptr %7, align 8, !tbaa !23
  %32 = load i64, ptr %8, align 8, !tbaa !23
  %33 = icmp slt i64 %31, %32
  br i1 %33, label %34, label %65

34:                                               ; preds = %30
  call void @llvm.lifetime.start.p0(i64 8, ptr %10) #9
  %35 = load ptr, ptr %5, align 8, !tbaa !4
  %36 = getelementptr inbounds nuw %struct.PyTupleObject, ptr %35, i32 0, i32 1
  %37 = load i64, ptr %7, align 8, !tbaa !23
  %38 = getelementptr [1 x ptr], ptr %36, i64 0, i64 %37
  %39 = load ptr, ptr %38, align 8, !tbaa !4
  %40 = load ptr, ptr @PyExc_IndexError, align 8, !tbaa !4
  %41 = call i64 @PyNumber_AsSsize_t(ptr noundef %39, ptr noundef %40)
  store i64 %41, ptr %10, align 8, !tbaa !23
  %42 = load i64, ptr %10, align 8, !tbaa !23
  %43 = icmp eq i64 %42, -1
  br i1 %43, label %44, label %48

44:                                               ; preds = %34
  %45 = call ptr @PyErr_Occurred()
  %46 = icmp ne ptr %45, null
  br i1 %46, label %47, label %48

47:                                               ; preds = %44
  store ptr null, ptr %3, align 8
  store i32 1, ptr %9, align 4
  br label %59

48:                                               ; preds = %44, %34
  %49 = load ptr, ptr %4, align 8, !tbaa !9
  %50 = load ptr, ptr %6, align 8, !tbaa !22
  %51 = load i64, ptr %7, align 8, !tbaa !23
  %52 = trunc i64 %51 to i32
  %53 = load i64, ptr %10, align 8, !tbaa !23
  %54 = call ptr @lookup_dimension(ptr noundef %49, ptr noundef %50, i32 noundef %52, i64 noundef %53)
  store ptr %54, ptr %6, align 8, !tbaa !22
  %55 = load ptr, ptr %6, align 8, !tbaa !22
  %56 = icmp eq ptr %55, null
  br i1 %56, label %57, label %58

57:                                               ; preds = %48
  store ptr null, ptr %3, align 8
  store i32 1, ptr %9, align 4
  br label %59

58:                                               ; preds = %48
  store i32 0, ptr %9, align 4
  br label %59

59:                                               ; preds = %58, %57, %47
  call void @llvm.lifetime.end.p0(i64 8, ptr %10) #9
  %60 = load i32, ptr %9, align 4
  switch i32 %60, label %67 [
    i32 0, label %61
  ]

61:                                               ; preds = %59
  br label %62

62:                                               ; preds = %61
  %63 = load i64, ptr %7, align 8, !tbaa !23
  %64 = add i64 %63, 1
  store i64 %64, ptr %7, align 8, !tbaa !23
  br label %30, !llvm.loop !184

65:                                               ; preds = %30
  %66 = load ptr, ptr %6, align 8, !tbaa !22
  store ptr %66, ptr %3, align 8
  store i32 1, ptr %9, align 4
  br label %67

67:                                               ; preds = %65, %59, %22
  call void @llvm.lifetime.end.p0(i64 8, ptr %8) #9
  call void @llvm.lifetime.end.p0(i64 8, ptr %7) #9
  call void @llvm.lifetime.end.p0(i64 8, ptr %6) #9
  %68 = load ptr, ptr %3, align 8
  ret ptr %68
}