; Function Attrs: nounwind uwtable
define internal fastcc ptr @ptr_from_tuple(ptr noundef readonly captures(none) %0, ptr noundef readonly captures(none) %1) unnamed_addr #0 {
  %3 = load ptr, ptr %0, align 8, !tbaa !117
  %4 = getelementptr i8, ptr %1, i64 16
  %.val = load i64, ptr %4, align 8, !tbaa !162
  %5 = getelementptr inbounds nuw i8, ptr %0, i64 36
  %6 = load i32, ptr %5, align 4, !tbaa !103
  %7 = sext i32 %6 to i64
  %8 = icmp sgt i64 %.val, %7
  br i1 %8, label %14, label %.preheader

.preheader:                                       ; preds = %2
  %9 = icmp sgt i64 %.val, 0
  br i1 %9, label %.lr.ph, label %.thread

.lr.ph:                                           ; preds = %.preheader
  %10 = getelementptr inbounds nuw i8, ptr %1, i64 24
  %11 = getelementptr inbounds nuw i8, ptr %0, i64 48
  %12 = getelementptr inbounds nuw i8, ptr %0, i64 56
  %13 = getelementptr inbounds nuw i8, ptr %0, i64 64
  br label %17

14:                                               ; preds = %2
  %15 = load ptr, ptr @PyExc_TypeError, align 8, !tbaa !104
  %16 = tail call ptr (ptr, ptr, ...) @PyErr_Format(ptr noundef %15, ptr noundef nonnull @.str.24, i32 noundef %6, i64 noundef %.val) #14
  br label %.thread

17:                                               ; preds = %.lr.ph, %75
  %.02043 = phi ptr [ %3, %.lr.ph ], [ %phi.call, %75 ]
  %.02242 = phi i64 [ 0, %.lr.ph ], [ %76, %75 ]
  %18 = getelementptr [1 x ptr], ptr %10, i64 0, i64 %.02242
  %19 = load ptr, ptr %18, align 8, !tbaa !104
  %20 = load ptr, ptr @PyExc_IndexError, align 8, !tbaa !104
  %21 = tail call i64 @PyNumber_AsSsize_t(ptr noundef %19, ptr noundef %20) #14
  %22 = icmp eq i64 %21, -1
  br i1 %22, label %49, label %.split

.split:                                           ; preds = %17
  %23 = load ptr, ptr %11, align 8, !tbaa !127
  %sext = shl i64 %.02242, 32
  %24 = ashr exact i64 %sext, 32
  %25 = getelementptr i64, ptr %23, i64 %24
  %26 = load i64, ptr %25, align 8, !tbaa !124
  %27 = icmp slt i64 %21, 0
  %28 = select i1 %27, i64 %26, i64 0
  %spec.select.i = add i64 %28, %21
  %29 = icmp sgt i64 %spec.select.i, -1
  %.not.i = icmp slt i64 %spec.select.i, %26
  %or.cond.i = select i1 %29, i1 %.not.i, i1 false
  br i1 %or.cond.i, label %35, label %30

30:                                               ; preds = %.split
  %31 = trunc i64 %.02242 to i32
  %32 = load ptr, ptr @PyExc_IndexError, align 8, !tbaa !104
  %33 = add i32 %31, 1
  %34 = tail call ptr (ptr, ptr, ...) @PyErr_Format(ptr noundef %32, ptr noundef nonnull @.str.20, i32 noundef %33) #14
  br label %.thread

35:                                               ; preds = %.split
  %36 = load ptr, ptr %12, align 8, !tbaa !128
  %37 = getelementptr i64, ptr %36, i64 %24
  %38 = load i64, ptr %37, align 8, !tbaa !124
  %39 = mul i64 %38, %spec.select.i
  %40 = getelementptr i8, ptr %.02043, i64 %39
  %41 = load ptr, ptr %13, align 8, !tbaa !123
  %.not25.i = icmp eq ptr %41, null
  br i1 %.not25.i, label %74, label %42

42:                                               ; preds = %35
  %43 = getelementptr i64, ptr %41, i64 %24
  %44 = load i64, ptr %43, align 8, !tbaa !124
  %45 = icmp sgt i64 %44, -1
  br i1 %45, label %46, label %74

46:                                               ; preds = %42
  %47 = load ptr, ptr %40, align 8, !tbaa !132
  %48 = getelementptr i8, ptr %47, i64 %44
  br label %74

49:                                               ; preds = %17
  %50 = tail call ptr @PyErr_Occurred() #14
  %.not = icmp eq ptr %50, null
  br i1 %.not, label %.split23, label %.thread

.split23:                                         ; preds = %49
  %51 = load ptr, ptr %11, align 8, !tbaa !127
  %sext38 = shl i64 %.02242, 32
  %52 = ashr exact i64 %sext38, 32
  %53 = getelementptr i64, ptr %51, i64 %52
  %54 = load i64, ptr %53, align 8, !tbaa !124
  %or.cond.i29 = icmp sgt i64 %54, 0
  br i1 %or.cond.i29, label %60, label %55

55:                                               ; preds = %.split23
  %56 = trunc i64 %.02242 to i32
  %57 = load ptr, ptr @PyExc_IndexError, align 8, !tbaa !104
  %58 = add i32 %56, 1
  %59 = tail call ptr (ptr, ptr, ...) @PyErr_Format(ptr noundef %57, ptr noundef nonnull @.str.20, i32 noundef %58) #14
  br label %.thread

60:                                               ; preds = %.split23
  %spec.select.i27 = add nsw i64 %54, -1
  %61 = load ptr, ptr %12, align 8, !tbaa !128
  %62 = getelementptr i64, ptr %61, i64 %52
  %63 = load i64, ptr %62, align 8, !tbaa !124
  %64 = mul i64 %63, %spec.select.i27
  %65 = getelementptr i8, ptr %.02043, i64 %64
  %66 = load ptr, ptr %13, align 8, !tbaa !123
  %.not25.i31 = icmp eq ptr %66, null
  br i1 %.not25.i31, label %74, label %67

67:                                               ; preds = %60
  %68 = getelementptr i64, ptr %66, i64 %52
  %69 = load i64, ptr %68, align 8, !tbaa !124
  %70 = icmp sgt i64 %69, -1
  br i1 %70, label %71, label %74

71:                                               ; preds = %67
  %72 = load ptr, ptr %65, align 8, !tbaa !132
  %73 = getelementptr i8, ptr %72, i64 %69
  br label %74

74:                                               ; preds = %35, %42, %46, %60, %67, %71
  %phi.call = phi ptr [ %48, %46 ], [ %40, %42 ], [ %40, %35 ], [ %73, %71 ], [ %65, %67 ], [ %65, %60 ]
  %.not39 = icmp eq ptr %phi.call, null
  br i1 %.not39, label %.thread, label %75

75:                                               ; preds = %74
  %76 = add nuw nsw i64 %.02242, 1
  %exitcond.not = icmp eq i64 %76, %.val
  br i1 %exitcond.not, label %.thread, label %17, !llvm.loop !173

.thread:                                          ; preds = %74, %75, %49, %.preheader, %55, %30, %14
  %.0 = phi ptr [ null, %14 ], [ null, %30 ], [ null, %55 ], [ %3, %.preheader ], [ null, %74 ], [ %phi.call, %75 ], [ null, %49 ]
  ret ptr %.0
}